target datalayout = "e-m:e-p270:32:32-p271:32:32-p272:64:64-i64:64-i128:128-f80:128-n8:16:32:64-S128"
target triple = "x86_64-pc-linux-gnu"

%struct.clusterMsgPingExt = type { i32, i16, i16, [0 x %union.anon.5] }
%union.anon.5 = type { %struct.clusterMsgPingExtForgottenNode }
%struct.clusterMsgPingExtForgottenNode = type { [40 x i8], i64 }

; Function Attrs: inlinehint nounwind uwtable
define internal i32 @__bswap_32(i32 noundef %0) #5 {
  %2 = alloca i32, align 4
  store i32 %0, ptr %2, align 4, !tbaa !46
  %3 = load i32, ptr %2, align 4, !tbaa !46
  %4 = and i32 %3, -16777216
  %5 = lshr i32 %4, 24
  %6 = load i32, ptr %2, align 4, !tbaa !46
  %7 = and i32 %6, 16711680
  %8 = lshr i32 %7, 8
  %9 = or i32 %5, %8
  %10 = load i32, ptr %2, align 4, !tbaa !46
  %11 = and i32 %10, 65280
  %12 = shl i32 %11, 8
  %13 = or i32 %9, %12
  %14 = load i32, ptr %2, align 4, !tbaa !46
  %15 = and i32 %14, 255
  %16 = shl i32 %15, 24
  %17 = or i32 %13, %16
  ret i32 %17
}

; Function Attrs: inlinehint nounwind uwtable
define internal zeroext i16 @__bswap_16(i16 noundef zeroext %0) #5 {
  %2 = alloca i16, align 2
  store i16 %0, ptr %2, align 2, !tbaa !63
  %3 = load i16, ptr %2, align 2, !tbaa !63
  %4 = zext i16 %3 to i32
  %5 = ashr i32 %4, 8
  %6 = and i32 %5, 255
  %7 = load i16, ptr %2, align 2, !tbaa !63
  %8 = zext i16 %7 to i32
  %9 = and i32 %8, 255
  %10 = shl i32 %9, 8
  %11 = or i32 %6, %10
  %12 = trunc i32 %11 to i16
  ret i16 %12
}

; Function Attrs: nounwind uwtable
define dso_local ptr @preparePingExt(ptr noundef %0, i16 noundef zeroext %1, i32 noundef %2) #0 {
  %4 = alloca ptr, align 8
  %5 = alloca i16, align 2
  %6 = alloca i32, align 4
  store ptr %0, ptr %4, align 8, !tbaa !47
  store i16 %1, ptr %5, align 2, !tbaa !63
  store i32 %2, ptr %6, align 4, !tbaa !46
  %7 = load i16, ptr %5, align 2, !tbaa !63
  %8 = call zeroext i16 @__bswap_16(i16 noundef zeroext %7)
  %9 = load ptr, ptr %4, align 8, !tbaa !47
  %10 = getelementptr inbounds nuw %struct.clusterMsgPingExt, ptr %9, i32 0, i32 1
  store i16 %8, ptr %10, align 4, !tbaa !63
  %11 = load i32, ptr %6, align 4, !tbaa !46
  %12 = call i32 @__bswap_32(i32 noundef %11)
  %13 = load ptr, ptr %4, align 8, !tbaa !47
  %14 = getelementptr inbounds nuw %struct.clusterMsgPingExt, ptr %13, i32 0, i32 0
  store i32 %12, ptr %14, align 8, !tbaa !46
  %15 = load ptr, ptr %4, align 8, !tbaa !47
  %16 = getelementptr inbounds nuw %struct.clusterMsgPingExt, ptr %15, i32 0, i32 3
  %17 = getelementptr inbounds [0 x %union.anon.5], ptr %16, i64 0, i64 0
  ret ptr %17
}