; Function Attrs: mustprogress nofree norecurse nosync nounwind willreturn memory(argmem: write) uwtable
define dso_local nonnull ptr @preparePingExt(ptr noundef writeonly captures(ret: address, provenance) initializes((0, 6)) %0, i16 noundef zeroext %1, i32 noundef %2) local_unnamed_addr #29 {
  %rev.i = tail call noundef i16 @llvm.bswap.i16(i16 %1)
  %4 = getelementptr inbounds nuw i8, ptr %0, i64 4
  store i16 %rev.i, ptr %4, align 4, !tbaa !51
  %5 = tail call noundef i32 @llvm.bswap.i32(i32 %2)
  store i32 %5, ptr %0, align 8, !tbaa !38
  %6 = getelementptr inbounds nuw i8, ptr %0, i64 8
  ret ptr %6
}